target datalayout = "e-m:e-p270:32:32-p271:32:32-p272:64:64-i64:64-i128:128-f80:128-n8:16:32:64-S128"
target triple = "x86_64-pc-linux-gnu"

%struct.git_istream = type { ptr, ptr, ptr, i64, %struct.git_zstream, i32, %union.anon }
%struct.git_zstream = type { %struct.z_stream_s, i64, i64, i64, i64, ptr, ptr }
%struct.z_stream_s = type { ptr, i32, i64, ptr, i32, i64, ptr, ptr, ptr, ptr, ptr, i32, i64, i64 }
%union.anon = type { %struct.filtered_istream }
%struct.filtered_istream = type { ptr, ptr, [16384 x i8], [16384 x i8], i32, i32, i32, i32, i32 }

; Function Attrs: nounwind uwtable
define dso_local i64 @read_istream(ptr noundef %0, ptr noundef %1, i64 noundef %2) #0 {
  %4 = alloca ptr, align 8
  %5 = alloca ptr, align 8
  %6 = alloca i64, align 8
  store ptr %0, ptr %4, align 8, !tbaa !4
  store ptr %1, ptr %5, align 8, !tbaa !18
  store i64 %2, ptr %6, align 8, !tbaa !19
  %7 = load ptr, ptr %4, align 8, !tbaa !4
  %8 = getelementptr inbounds nuw %struct.git_istream, ptr %7, i32 0, i32 2
  %9 = load ptr, ptr %8, align 8, !tbaa !20
  %10 = load ptr, ptr %4, align 8, !tbaa !4
  %11 = load ptr, ptr %5, align 8, !tbaa !18
  %12 = load i64, ptr %6, align 8, !tbaa !19
  %13 = call i64 %9(ptr noundef %10, ptr noundef %11, i64 noundef %12)
  ret i64 %13
}

; Function Attrs: nounwind uwtable
define internal i64 @read_istream_filtered(ptr noundef %0, ptr noundef %1, i64 noundef %2) #0 {
  %4 = alloca i64, align 8
  %5 = alloca ptr, align 8
  %6 = alloca ptr, align 8
  %7 = alloca i64, align 8
  %8 = alloca ptr, align 8
  %9 = alloca i64, align 8
  %10 = alloca i64, align 8
  %11 = alloca i64, align 8
  %12 = alloca i64, align 8
  %13 = alloca i32, align 4
  %14 = alloca i64, align 8
  store ptr %0, ptr %5, align 8, !tbaa !4
  store ptr %1, ptr %6, align 8, !tbaa !87
  store i64 %2, ptr %7, align 8, !tbaa !19
  call void @llvm.lifetime.start.p0(i64 8, ptr %8) #8
  %15 = load ptr, ptr %5, align 8, !tbaa !4
  %16 = getelementptr inbounds nuw %struct.git_istream, ptr %15, i32 0, i32 6
  store ptr %16, ptr %8, align 8, !tbaa !71
  call void @llvm.lifetime.start.p0(i64 8, ptr %9) #8
  store i64 0, ptr %9, align 8, !tbaa !19
  br label %17

17:                                               ; preds = %184, %182, %150, %121, %42, %3
  %18 = load i64, ptr %7, align 8, !tbaa !19
  %19 = icmp ne i64 %18, 0
  br i1 %19, label %20, label %187

20:                                               ; preds = %17
  %21 = load ptr, ptr %8, align 8, !tbaa !71
  %22 = getelementptr inbounds nuw %struct.filtered_istream, ptr %21, i32 0, i32 7
  %23 = load i32, ptr %22, align 4, !tbaa !78
  %24 = load ptr, ptr %8, align 8, !tbaa !71
  %25 = getelementptr inbounds nuw %struct.filtered_istream, ptr %24, i32 0, i32 6
  %26 = load i32, ptr %25, align 8, !tbaa !79
  %27 = icmp slt i32 %23, %26
  br i1 %27, label %28, label %68

28:                                               ; preds = %20
  call void @llvm.lifetime.start.p0(i64 8, ptr %10) #8
  %29 = load ptr, ptr %8, align 8, !tbaa !71
  %30 = getelementptr inbounds nuw %struct.filtered_istream, ptr %29, i32 0, i32 6
  %31 = load i32, ptr %30, align 8, !tbaa !79
  %32 = load ptr, ptr %8, align 8, !tbaa !71
  %33 = getelementptr inbounds nuw %struct.filtered_istream, ptr %32, i32 0, i32 7
  %34 = load i32, ptr %33, align 4, !tbaa !78
  %35 = sub nsw i32 %31, %34
  %36 = sext i32 %35 to i64
  store i64 %36, ptr %10, align 8, !tbaa !19
  %37 = load i64, ptr %7, align 8, !tbaa !19
  %38 = load i64, ptr %10, align 8, !tbaa !19
  %39 = icmp ult i64 %37, %38
  br i1 %39, label %40, label %42

40:                                               ; preds = %28
  %41 = load i64, ptr %7, align 8, !tbaa !19
  store i64 %41, ptr %10, align 8, !tbaa !19
  br label %42

42:                                               ; preds = %40, %28
  %43 = load ptr, ptr %6, align 8, !tbaa !87
  %44 = load i64, ptr %9, align 8, !tbaa !19
  %45 = getelementptr inbounds nuw i8, ptr %43, i64 %44
  %46 = load ptr, ptr %8, align 8, !tbaa !71
  %47 = getelementptr inbounds nuw %struct.filtered_istream, ptr %46, i32 0, i32 3
  %48 = getelementptr inbounds [16384 x i8], ptr %47, i64 0, i64 0
  %49 = load ptr, ptr %8, align 8, !tbaa !71
  %50 = getelementptr inbounds nuw %struct.filtered_istream, ptr %49, i32 0, i32 7
  %51 = load i32, ptr %50, align 4, !tbaa !78
  %52 = sext i32 %51 to i64
  %53 = getelementptr inbounds i8, ptr %48, i64 %52
  %54 = load i64, ptr %10, align 8, !tbaa !19
  call void @llvm.memcpy.p0.p0.i64(ptr align 1 %45, ptr align 1 %53, i64 %54, i1 false)
  %55 = load i64, ptr %10, align 8, !tbaa !19
  %56 = load ptr, ptr %8, align 8, !tbaa !71
  %57 = getelementptr inbounds nuw %struct.filtered_istream, ptr %56, i32 0, i32 7
  %58 = load i32, ptr %57, align 4, !tbaa !78
  %59 = sext i32 %58 to i64
  %60 = add i64 %59, %55
  %61 = trunc i64 %60 to i32
  store i32 %61, ptr %57, align 4, !tbaa !78
  %62 = load i64, ptr %10, align 8, !tbaa !19
  %63 = load i64, ptr %7, align 8, !tbaa !19
  %64 = sub i64 %63, %62
  store i64 %64, ptr %7, align 8, !tbaa !19
  %65 = load i64, ptr %10, align 8, !tbaa !19
  %66 = load i64, ptr %9, align 8, !tbaa !19
  %67 = add i64 %66, %65
  store i64 %67, ptr %9, align 8, !tbaa !19
  call void @llvm.lifetime.end.p0(i64 8, ptr %10) #8
  br label %17

68:                                               ; preds = %20
  %69 = load ptr, ptr %8, align 8, !tbaa !71
  %70 = getelementptr inbounds nuw %struct.filtered_istream, ptr %69, i32 0, i32 7
  store i32 0, ptr %70, align 4, !tbaa !78
  %71 = load ptr, ptr %8, align 8, !tbaa !71
  %72 = getelementptr inbounds nuw %struct.filtered_istream, ptr %71, i32 0, i32 6
  store i32 0, ptr %72, align 8, !tbaa !79
  %73 = load ptr, ptr %8, align 8, !tbaa !71
  %74 = getelementptr inbounds nuw %struct.filtered_istream, ptr %73, i32 0, i32 5
  %75 = load i32, ptr %74, align 4, !tbaa !76
  %76 = load ptr, ptr %8, align 8, !tbaa !71
  %77 = getelementptr inbounds nuw %struct.filtered_istream, ptr %76, i32 0, i32 4
  %78 = load i32, ptr %77, align 8, !tbaa !77
  %79 = icmp slt i32 %75, %78
  br i1 %79, label %80, label %123

80:                                               ; preds = %68
  call void @llvm.lifetime.start.p0(i64 8, ptr %11) #8
  %81 = load ptr, ptr %8, align 8, !tbaa !71
  %82 = getelementptr inbounds nuw %struct.filtered_istream, ptr %81, i32 0, i32 4
  %83 = load i32, ptr %82, align 8, !tbaa !77
  %84 = load ptr, ptr %8, align 8, !tbaa !71
  %85 = getelementptr inbounds nuw %struct.filtered_istream, ptr %84, i32 0, i32 5
  %86 = load i32, ptr %85, align 4, !tbaa !76
  %87 = sub nsw i32 %83, %86
  %88 = sext i32 %87 to i64
  store i64 %88, ptr %11, align 8, !tbaa !19
  call void @llvm.lifetime.start.p0(i64 8, ptr %12) #8
  store i64 16384, ptr %12, align 8, !tbaa !19
  %89 = load ptr, ptr %8, align 8, !tbaa !71
  %90 = getelementptr inbounds nuw %struct.filtered_istream, ptr %89, i32 0, i32 1
  %91 = load ptr, ptr %90, align 8, !tbaa !75
  %92 = load ptr, ptr %8, align 8, !tbaa !71
  %93 = getelementptr inbounds nuw %struct.filtered_istream, ptr %92, i32 0, i32 2
  %94 = getelementptr inbounds [16384 x i8], ptr %93, i64 0, i64 0
  %95 = load ptr, ptr %8, align 8, !tbaa !71
  %96 = getelementptr inbounds nuw %struct.filtered_istream, ptr %95, i32 0, i32 5
  %97 = load i32, ptr %96, align 4, !tbaa !76
  %98 = sext i32 %97 to i64
  %99 = getelementptr inbounds i8, ptr %94, i64 %98
  %100 = load ptr, ptr %8, align 8, !tbaa !71
  %101 = getelementptr inbounds nuw %struct.filtered_istream, ptr %100, i32 0, i32 3
  %102 = getelementptr inbounds [16384 x i8], ptr %101, i64 0, i64 0
  %103 = call i32 @stream_filter(ptr noundef %91, ptr noundef %99, ptr noundef %11, ptr noundef %102, ptr noundef %12)
  %104 = icmp ne i32 %103, 0
  br i1 %104, label %105, label %106

105:                                              ; preds = %80
  store i64 -1, ptr %4, align 8
  store i32 1, ptr %13, align 4
  br label %121

106:                                              ; preds = %80
  %107 = load ptr, ptr %8, align 8, !tbaa !71
  %108 = getelementptr inbounds nuw %struct.filtered_istream, ptr %107, i32 0, i32 4
  %109 = load i32, ptr %108, align 8, !tbaa !77
  %110 = sext i32 %109 to i64
  %111 = load i64, ptr %11, align 8, !tbaa !19
  %112 = sub i64 %110, %111
  %113 = trunc i64 %112 to i32
  %114 = load ptr, ptr %8, align 8, !tbaa !71
  %115 = getelementptr inbounds nuw %struct.filtered_istream, ptr %114, i32 0, i32 5
  store i32 %113, ptr %115, align 4, !tbaa !76
  %116 = load i64, ptr %12, align 8, !tbaa !19
  %117 = sub i64 16384, %116
  %118 = trunc i64 %117 to i32
  %119 = load ptr, ptr %8, align 8, !tbaa !71
  %120 = getelementptr inbounds nuw %struct.filtered_istream, ptr %119, i32 0, i32 6
  store i32 %118, ptr %120, align 8, !tbaa !79
  store i32 2, ptr %13, align 4
  br label %121, !llvm.loop !93

121:                                              ; preds = %106, %105
  call void @llvm.lifetime.end.p0(i64 8, ptr %12) #8
  call void @llvm.lifetime.end.p0(i64 8, ptr %11) #8
  %122 = load i32, ptr %13, align 4
  switch i32 %122, label %189 [
    i32 2, label %17
  ]

123:                                              ; preds = %68
  %124 = load ptr, ptr %8, align 8, !tbaa !71
  %125 = getelementptr inbounds nuw %struct.filtered_istream, ptr %124, i32 0, i32 8
  %126 = load i32, ptr %125, align 8, !tbaa !80
  %127 = icmp ne i32 %126, 0
  br i1 %127, label %128, label %152

128:                                              ; preds = %123
  call void @llvm.lifetime.start.p0(i64 8, ptr %14) #8
  store i64 16384, ptr %14, align 8, !tbaa !19
  %129 = load ptr, ptr %8, align 8, !tbaa !71
  %130 = getelementptr inbounds nuw %struct.filtered_istream, ptr %129, i32 0, i32 1
  %131 = load ptr, ptr %130, align 8, !tbaa !75
  %132 = load ptr, ptr %8, align 8, !tbaa !71
  %133 = getelementptr inbounds nuw %struct.filtered_istream, ptr %132, i32 0, i32 3
  %134 = getelementptr inbounds [16384 x i8], ptr %133, i64 0, i64 0
  %135 = call i32 @stream_filter(ptr noundef %131, ptr noundef null, ptr noundef null, ptr noundef %134, ptr noundef %14)
  %136 = icmp ne i32 %135, 0
  br i1 %136, label %137, label %138

137:                                              ; preds = %128
  store i64 -1, ptr %4, align 8
  store i32 1, ptr %13, align 4
  br label %150

138:                                              ; preds = %128
  %139 = load i64, ptr %14, align 8, !tbaa !19
  %140 = sub i64 16384, %139
  %141 = trunc i64 %140 to i32
  %142 = load ptr, ptr %8, align 8, !tbaa !71
  %143 = getelementptr inbounds nuw %struct.filtered_istream, ptr %142, i32 0, i32 6
  store i32 %141, ptr %143, align 8, !tbaa !79
  %144 = load ptr, ptr %8, align 8, !tbaa !71
  %145 = getelementptr inbounds nuw %struct.filtered_istream, ptr %144, i32 0, i32 6
  %146 = load i32, ptr %145, align 8, !tbaa !79
  %147 = icmp ne i32 %146, 0
  br i1 %147, label %149, label %148

148:                                              ; preds = %138
  store i32 3, ptr %13, align 4
  br label %150

149:                                              ; preds = %138
  store i32 2, ptr %13, align 4
  br label %150, !llvm.loop !93

150:                                              ; preds = %149, %148, %137
  call void @llvm.lifetime.end.p0(i64 8, ptr %14) #8
  %151 = load i32, ptr %13, align 4
  switch i32 %151, label %189 [
    i32 3, label %187
    i32 2, label %17
  ]

152:                                              ; preds = %123
  %153 = load ptr, ptr %8, align 8, !tbaa !71
  %154 = getelementptr inbounds nuw %struct.filtered_istream, ptr %153, i32 0, i32 5
  store i32 0, ptr %154, align 4, !tbaa !76
  %155 = load ptr, ptr %8, align 8, !tbaa !71
  %156 = getelementptr inbounds nuw %struct.filtered_istream, ptr %155, i32 0, i32 4
  store i32 0, ptr %156, align 8, !tbaa !77
  %157 = load ptr, ptr %8, align 8, !tbaa !71
  %158 = getelementptr inbounds nuw %struct.filtered_istream, ptr %157, i32 0, i32 8
  %159 = load i32, ptr %158, align 8, !tbaa !80
  %160 = icmp ne i32 %159, 0
  br i1 %160, label %184, label %161

161:                                              ; preds = %152
  %162 = load ptr, ptr %8, align 8, !tbaa !71
  %163 = getelementptr inbounds nuw %struct.filtered_istream, ptr %162, i32 0, i32 0
  %164 = load ptr, ptr %163, align 8, !tbaa !73
  %165 = load ptr, ptr %8, align 8, !tbaa !71
  %166 = getelementptr inbounds nuw %struct.filtered_istream, ptr %165, i32 0, i32 2
  %167 = getelementptr inbounds [16384 x i8], ptr %166, i64 0, i64 0
  %168 = call i64 @read_istream(ptr noundef %164, ptr noundef %167, i64 noundef 16384)
  %169 = trunc i64 %168 to i32
  %170 = load ptr, ptr %8, align 8, !tbaa !71
  %171 = getelementptr inbounds nuw %struct.filtered_istream, ptr %170, i32 0, i32 4
  store i32 %169, ptr %171, align 8, !tbaa !77
  %172 = load ptr, ptr %8, align 8, !tbaa !71
  %173 = getelementptr inbounds nuw %struct.filtered_istream, ptr %172, i32 0, i32 4
  %174 = load i32, ptr %173, align 8, !tbaa !77
  %175 = icmp slt i32 %174, 0
  br i1 %175, label %176, label %177

176:                                              ; preds = %161
  store i64 -1, ptr %4, align 8
  store i32 1, ptr %13, align 4
  br label %189

177:                                              ; preds = %161
  %178 = load ptr, ptr %8, align 8, !tbaa !71
  %179 = getelementptr inbounds nuw %struct.filtered_istream, ptr %178, i32 0, i32 4
  %180 = load i32, ptr %179, align 8, !tbaa !77
  %181 = icmp ne i32 %180, 0
  br i1 %181, label %182, label %183

182:                                              ; preds = %177
  br label %17, !llvm.loop !93

183:                                              ; preds = %177
  br label %184

184:                                              ; preds = %183, %152
  %185 = load ptr, ptr %8, align 8, !tbaa !71
  %186 = getelementptr inbounds nuw %struct.filtered_istream, ptr %185, i32 0, i32 8
  store i32 1, ptr %186, align 8, !tbaa !80
  br label %17, !llvm.loop !93

187:                                              ; preds = %150, %17
  %188 = load i64, ptr %9, align 8, !tbaa !19
  store i64 %188, ptr %4, align 8
  store i32 1, ptr %13, align 4
  br label %189

189:                                              ; preds = %187, %176, %150, %121
  call void @llvm.lifetime.end.p0(i64 8, ptr %9) #8
  call void @llvm.lifetime.end.p0(i64 8, ptr %8) #8
  %190 = load i64, ptr %4, align 8
  ret i64 %190
}