; Function Attrs: nounwind uwtable
define internal i64 @read_istream_filtered(ptr noundef %0, ptr noundef writeonly captures(none) %1, i64 noundef %2) #0 {
  %4 = alloca i64, align 8
  %5 = alloca i64, align 8
  %6 = alloca i64, align 8
  %7 = getelementptr inbounds nuw i8, ptr %0, i64 200
  %.not85 = icmp eq i64 %2, 0
  br i1 %.not85, label %.loopexit, label %.lr.ph.lr.ph

.lr.ph.lr.ph:                                     ; preds = %3
  %8 = getelementptr inbounds nuw i8, ptr %0, i64 32996
  %9 = getelementptr inbounds nuw i8, ptr %0, i64 32992
  %10 = getelementptr inbounds nuw i8, ptr %0, i64 32988
  %11 = getelementptr inbounds nuw i8, ptr %0, i64 32984
  %12 = getelementptr inbounds nuw i8, ptr %0, i64 33000
  %13 = getelementptr inbounds nuw i8, ptr %0, i64 208
  %14 = getelementptr inbounds nuw i8, ptr %0, i64 16600
  %15 = getelementptr inbounds nuw i8, ptr %0, i64 216
  br label %.lr.ph

.lr.ph:                                           ; preds = %.lr.ph.lr.ph, %.outer
  %.051.ph87 = phi i64 [ 0, %.lr.ph.lr.ph ], [ %28, %.outer ]
  %.054.ph86 = phi i64 [ %2, %.lr.ph.lr.ph ], [ %27, %.outer ]
  %16 = load i32, ptr %8, align 4, !tbaa !78
  %17 = load i32, ptr %9, align 8, !tbaa !79
  %18 = icmp slt i32 %16, %17
  br i1 %18, label %.outer, label %.lr.ph135

.outer:                                           ; preds = %.backedge, %.lr.ph
  %.lcssa125 = phi i32 [ %16, %.lr.ph ], [ %65, %.backedge ]
  %.lcssa = phi i32 [ %17, %.lr.ph ], [ %66, %.backedge ]
  %19 = sub nsw i32 %.lcssa, %.lcssa125
  %20 = sext i32 %19 to i64
  %spec.select = call i64 @llvm.umin.i64(i64 %.054.ph86, i64 %20)
  %21 = getelementptr inbounds nuw i8, ptr %1, i64 %.051.ph87
  %22 = sext i32 %.lcssa125 to i64
  %23 = getelementptr inbounds i8, ptr %14, i64 %22
  call void @llvm.memcpy.p0.p0.i64(ptr align 1 %21, ptr nonnull align 1 %23, i64 %spec.select, i1 false)
  %24 = load i32, ptr %8, align 4, !tbaa !78
  %25 = trunc i64 %spec.select to i32
  %26 = add i32 %24, %25
  store i32 %26, ptr %8, align 4, !tbaa !78
  %27 = sub i64 %.054.ph86, %spec.select
  %28 = add i64 %spec.select, %.051.ph87
  %.not = icmp eq i64 %27, 0
  br i1 %.not, label %.loopexit, label %.lr.ph

.lr.ph135:                                        ; preds = %.lr.ph, %.backedge
  store i32 0, ptr %8, align 4, !tbaa !78
  store i32 0, ptr %9, align 8, !tbaa !79
  %29 = load i32, ptr %10, align 4, !tbaa !80
  %30 = load i32, ptr %11, align 8, !tbaa !81
  %31 = icmp slt i32 %29, %30
  br i1 %31, label %32, label %47

32:                                               ; preds = %.lr.ph135
  call void @llvm.lifetime.start.p0(i64 8, ptr nonnull %4) #11
  %33 = sub nsw i32 %30, %29
  %34 = sext i32 %33 to i64
  store i64 %34, ptr %4, align 8, !tbaa !57
  call void @llvm.lifetime.start.p0(i64 8, ptr nonnull %5) #11
  store i64 16384, ptr %5, align 8, !tbaa !57
  %35 = load ptr, ptr %13, align 8, !tbaa !65
  %36 = sext i32 %29 to i64
  %37 = getelementptr inbounds i8, ptr %15, i64 %36
  %38 = call i32 @stream_filter(ptr noundef %35, ptr noundef nonnull %37, ptr noundef nonnull %4, ptr noundef nonnull %14, ptr noundef nonnull %5) #11
  %.not64 = icmp eq i32 %38, 0
  br i1 %.not64, label %39, label %.critedge

39:                                               ; preds = %32
  %40 = load i32, ptr %11, align 8, !tbaa !81
  %41 = load i64, ptr %4, align 8, !tbaa !57
  %42 = trunc i64 %41 to i32
  %43 = sub i32 %40, %42
  store i32 %43, ptr %10, align 4, !tbaa !80
  %44 = load i64, ptr %5, align 8, !tbaa !57
  %45 = trunc i64 %44 to i32
  %46 = sub i32 16384, %45
  store i32 %46, ptr %9, align 8, !tbaa !79
  call void @llvm.lifetime.end.p0(i64 8, ptr nonnull %5) #11
  call void @llvm.lifetime.end.p0(i64 8, ptr nonnull %4) #11
  br label %.backedge

47:                                               ; preds = %.lr.ph135
  %48 = load i32, ptr %12, align 8, !tbaa !82
  %.not59 = icmp eq i32 %48, 0
  br i1 %.not59, label %56, label %49

49:                                               ; preds = %47
  call void @llvm.lifetime.start.p0(i64 8, ptr nonnull %6) #11
  store i64 16384, ptr %6, align 8, !tbaa !57
  %50 = load ptr, ptr %13, align 8, !tbaa !65
  %51 = call i32 @stream_filter(ptr noundef %50, ptr noundef null, ptr noundef null, ptr noundef nonnull %14, ptr noundef nonnull %6) #11
  %.not62 = icmp eq i32 %51, 0
  br i1 %.not62, label %52, label %.thread

.thread:                                          ; preds = %49
  call void @llvm.lifetime.end.p0(i64 8, ptr nonnull %6) #11
  br label %.loopexit

52:                                               ; preds = %49
  %53 = load i64, ptr %6, align 8, !tbaa !57
  %54 = trunc i64 %53 to i32
  %55 = sub i32 16384, %54
  store i32 %55, ptr %9, align 8, !tbaa !79
  %.not63 = icmp eq i32 %54, 16384
  call void @llvm.lifetime.end.p0(i64 8, ptr nonnull %6) #11
  br i1 %.not63, label %.loopexit, label %.backedge

56:                                               ; preds = %47
  store i32 0, ptr %10, align 4, !tbaa !80
  store i32 0, ptr %11, align 8, !tbaa !81
  %57 = load ptr, ptr %7, align 8, !tbaa !61
  %58 = getelementptr inbounds nuw i8, ptr %57, i64 16
  %59 = load ptr, ptr %58, align 8, !tbaa !15
  %60 = call i64 %59(ptr noundef %57, ptr noundef nonnull %15, i64 noundef 16384) #11
  %61 = trunc i64 %60 to i32
  store i32 %61, ptr %11, align 8, !tbaa !81
  %62 = icmp slt i32 %61, 0
  br i1 %62, label %.loopexit, label %63

63:                                               ; preds = %56
  %.not61 = icmp eq i32 %61, 0
  br i1 %.not61, label %64, label %.backedge

64:                                               ; preds = %63
  store i32 1, ptr %12, align 8, !tbaa !82
  br label %.backedge

.backedge:                                        ; preds = %52, %64, %63, %39
  %65 = load i32, ptr %8, align 4, !tbaa !78
  %66 = load i32, ptr %9, align 8, !tbaa !79
  %67 = icmp slt i32 %65, %66
  br i1 %67, label %.outer, label %.lr.ph135

.critedge:                                        ; preds = %32
  call void @llvm.lifetime.end.p0(i64 8, ptr nonnull %5) #11
  call void @llvm.lifetime.end.p0(i64 8, ptr nonnull %4) #11
  br label %.loopexit

.loopexit:                                        ; preds = %.outer, %56, %52, %3, %.thread, %.critedge
  %.2 = phi i64 [ -1, %.critedge ], [ -1, %.thread ], [ 0, %3 ], [ -1, %56 ], [ %.051.ph87, %52 ], [ %28, %.outer ]
  ret i64 %.2
}